target datalayout = "e-m:e-p270:32:32-p271:32:32-p272:64:64-i64:64-i128:128-f80:128-n8:16:32:64-S128"
target triple = "x86_64-pc-linux-gnu"

%struct.LOCK = type { %struct.LOCKTAG, i32, i32, %struct.dlist_head, %struct.dclist_head, [10 x i32], i32, [10 x i32], i32 }
%struct.LOCKTAG = type { i32, i32, i32, i16, i8, i8 }
%struct.dlist_head = type { %struct.dlist_node }
%struct.dlist_node = type { ptr, ptr }
%struct.dclist_head = type { %struct.dlist_head, i32 }
%struct.PGPROC = type { %struct.dlist_node, ptr, ptr, i32, %struct.Latch, i32, i32, i32, i32, %struct.anon, i32, i32, i32, i8, i8, i8, i8, %struct.proclist_node, %struct.proclist_node, ptr, ptr, i32, i32, %struct.pg_atomic_uint64, i32, i8, i64, i32, %struct.dlist_node, [16 x %struct.dlist_head], %struct.XidCacheStatus, %struct.XidCache, i8, %struct.pg_atomic_uint32, i32, i32, i8, %struct.pg_atomic_uint32, i32, i32, i64, i64, %struct.LWLock, ptr, ptr, i8, i32, ptr, %struct.dlist_head, %struct.dlist_node }
%struct.Latch = type { i32, i32, i8, i32 }
%struct.anon = type { i32, i32 }
%struct.proclist_node = type { i32, i32 }
%struct.pg_atomic_uint64 = type { i64 }
%struct.XidCacheStatus = type { i8, i8 }
%struct.XidCache = type { [64 x i32] }
%struct.pg_atomic_uint32 = type { i32 }
%struct.LWLock = type { i16, %struct.pg_atomic_uint32, %struct.proclist_head }
%struct.proclist_head = type { i32, i32 }
%struct.DEADLOCK_INFO = type { %struct.LOCKTAG, i32, i32 }

@deadlockDetails = internal global ptr null, align 8
@nDeadlockDetails = internal global i32 0, align 4

; Function Attrs: nounwind uwtable
define dso_local void @RememberSimpleDeadLock(ptr noundef %0, i32 noundef %1, ptr noundef %2, ptr noundef %3) #0 {
  %5 = alloca ptr, align 8
  %6 = alloca i32, align 4
  %7 = alloca ptr, align 8
  %8 = alloca ptr, align 8
  %9 = alloca ptr, align 8
  store ptr %0, ptr %5, align 8
  store i32 %1, ptr %6, align 4
  store ptr %2, ptr %7, align 8
  store ptr %3, ptr %8, align 8
  call void @llvm.lifetime.start.p0(i64 8, ptr %9) #8
  %10 = load ptr, ptr @deadlockDetails, align 8
  %11 = getelementptr inbounds %struct.DEADLOCK_INFO, ptr %10, i64 0
  store ptr %11, ptr %9, align 8
  %12 = load ptr, ptr %9, align 8
  %13 = getelementptr inbounds nuw %struct.DEADLOCK_INFO, ptr %12, i32 0, i32 0
  %14 = load ptr, ptr %7, align 8
  %15 = getelementptr inbounds nuw %struct.LOCK, ptr %14, i32 0, i32 0
  call void @llvm.memcpy.p0.p0.i64(ptr align 4 %13, ptr align 8 %15, i64 16, i1 false)
  %16 = load i32, ptr %6, align 4
  %17 = load ptr, ptr %9, align 8
  %18 = getelementptr inbounds nuw %struct.DEADLOCK_INFO, ptr %17, i32 0, i32 1
  store i32 %16, ptr %18, align 4
  %19 = load ptr, ptr %5, align 8
  %20 = getelementptr inbounds nuw %struct.PGPROC, ptr %19, i32 0, i32 7
  %21 = load i32, ptr %20, align 4
  %22 = load ptr, ptr %9, align 8
  %23 = getelementptr inbounds nuw %struct.DEADLOCK_INFO, ptr %22, i32 0, i32 2
  store i32 %21, ptr %23, align 4
  %24 = load ptr, ptr %9, align 8
  %25 = getelementptr inbounds nuw %struct.DEADLOCK_INFO, ptr %24, i32 1
  store ptr %25, ptr %9, align 8
  %26 = load ptr, ptr %9, align 8
  %27 = getelementptr inbounds nuw %struct.DEADLOCK_INFO, ptr %26, i32 0, i32 0
  %28 = load ptr, ptr %8, align 8
  %29 = getelementptr inbounds nuw %struct.PGPROC, ptr %28, i32 0, i32 19
  %30 = load ptr, ptr %29, align 8
  %31 = getelementptr inbounds nuw %struct.LOCK, ptr %30, i32 0, i32 0
  call void @llvm.memcpy.p0.p0.i64(ptr align 4 %27, ptr align 8 %31, i64 16, i1 false)
  %32 = load ptr, ptr %8, align 8
  %33 = getelementptr inbounds nuw %struct.PGPROC, ptr %32, i32 0, i32 21
  %34 = load i32, ptr %33, align 8
  %35 = load ptr, ptr %9, align 8
  %36 = getelementptr inbounds nuw %struct.DEADLOCK_INFO, ptr %35, i32 0, i32 1
  store i32 %34, ptr %36, align 4
  %37 = load ptr, ptr %8, align 8
  %38 = getelementptr inbounds nuw %struct.PGPROC, ptr %37, i32 0, i32 7
  %39 = load i32, ptr %38, align 4
  %40 = load ptr, ptr %9, align 8
  %41 = getelementptr inbounds nuw %struct.DEADLOCK_INFO, ptr %40, i32 0, i32 2
  store i32 %39, ptr %41, align 4
  store i32 2, ptr @nDeadlockDetails, align 4
  call void @llvm.lifetime.end.p0(i64 8, ptr %9) #8
  ret void
}