; Function Attrs: mustprogress nofree norecurse nosync nounwind willreturn memory(readwrite, inaccessiblemem: none) uwtable
define dso_local void @RememberSimpleDeadLock(ptr noundef readonly captures(none) %0, i32 noundef %1, ptr noundef readonly captures(none) %2, ptr noundef readonly captures(none) %3) local_unnamed_addr #6 {
  %5 = load ptr, ptr @deadlockDetails, align 8
  tail call void @llvm.memcpy.p0.p0.i64(ptr noundef nonnull align 4 dereferenceable(16) %5, ptr noundef nonnull align 8 dereferenceable(16) %2, i64 16, i1 false)
  %6 = getelementptr inbounds nuw i8, ptr %5, i64 16
  store i32 %1, ptr %6, align 4
  %7 = getelementptr inbounds nuw i8, ptr %0, i64 60
  %8 = load i32, ptr %7, align 4
  %9 = getelementptr inbounds nuw i8, ptr %5, i64 20
  store i32 %8, ptr %9, align 4
  %10 = getelementptr inbounds nuw i8, ptr %5, i64 24
  %11 = getelementptr inbounds nuw i8, ptr %3, i64 112
  %12 = load ptr, ptr %11, align 8
  tail call void @llvm.memcpy.p0.p0.i64(ptr noundef nonnull align 4 dereferenceable(16) %10, ptr noundef nonnull align 8 dereferenceable(16) %12, i64 16, i1 false)
  %13 = getelementptr inbounds nuw i8, ptr %3, i64 128
  %14 = load i32, ptr %13, align 8
  %15 = getelementptr inbounds nuw i8, ptr %5, i64 40
  store i32 %14, ptr %15, align 4
  %16 = getelementptr inbounds nuw i8, ptr %3, i64 60
  %17 = load i32, ptr %16, align 4
  %18 = getelementptr inbounds nuw i8, ptr %5, i64 44
  store i32 %17, ptr %18, align 4
  store i32 2, ptr @nDeadlockDetails, align 4
  ret void
}